; Function Attrs: mustprogress nofree norecurse nosync nounwind willreturn memory(argmem: read) uwtable
define internal zeroext range(i8 21, 24) i8 @tls13_get_record_type(ptr noundef readonly captures(none) %0, ptr noundef readonly captures(none) %1) #2 {
  %3 = getelementptr inbounds nuw i8, ptr %0, i64 4304
  %4 = load i32, ptr %3, align 8, !tbaa !45
  %.not = icmp eq i32 %4, 0
  br i1 %.not, label %8, label %5

5:                                                ; preds = %2
  %6 = load i8, ptr %1, align 8, !tbaa !47
  %7 = icmp eq i8 %6, 21
  br i1 %7, label %9, label %8

8:                                                ; preds = %5, %2
  br label %9

9:                                                ; preds = %5, %8
  %.0 = phi i8 [ 23, %8 ], [ 21, %5 ]
  ret i8 %.0
}